; ModuleID = 'source-C-CXX/28/1766.c'
source_filename = "source-C-CXX/28/1766.c"
target datalayout = "e-m:e-p270:32:32-p271:32:32-p272:64:64-i64:64-f80:128-n8:16:32:64-S128"
target triple = "x86_64-pc-linux-gnu"

@.str = private unnamed_addr constant [3 x i8] c"%d\00", align 1
@.str.1 = private unnamed_addr constant [7 x i8] c"%.3lf\0A\00", align 1

; Function Attrs: nofree nounwind sspstrong uwtable
define dso_local i32 @main() local_unnamed_addr #0 {
  %1 = alloca i32, align 4
  %2 = alloca i32, align 4
  %3 = bitcast i32* %1 to i8*
  call void @llvm.lifetime.start.p0i8(i64 4, i8* nonnull %3) #3
  %4 = bitcast i32* %2 to i8*
  call void @llvm.lifetime.start.p0i8(i64 4, i8* nonnull %4) #3
  %5 = call i32 (i8*, ...) @__isoc99_scanf(i8* getelementptr inbounds ([3 x i8], [3 x i8]* @.str, i64 0, i64 0), i32* nonnull %1)
  %6 = load i32, i32* %1, align 4, !tbaa !5
  %7 = icmp slt i32 %6, 1
  br i1 %7, label %50, label %8

8:                                                ; preds = %0, %44
  %9 = phi i32 [ %47, %44 ], [ 1, %0 ]
  %10 = call i32 (i8*, ...) @__isoc99_scanf(i8* getelementptr inbounds ([3 x i8], [3 x i8]* @.str, i64 0, i64 0), i32* nonnull %2)
  %11 = load i32, i32* %2, align 4, !tbaa !5
  %12 = icmp slt i32 %11, 1
  br i1 %12, label %44, label %13

13:                                               ; preds = %8
  %14 = and i32 %11, 1
  %15 = icmp eq i32 %11, 1
  br i1 %15, label %35, label %16

16:                                               ; preds = %13
  %17 = and i32 %11, -2
  br label %18

18:                                               ; preds = %18, %16
  %19 = phi double [ 2.000000e+00, %16 ], [ %32, %18 ]
  %20 = phi double [ 1.000000e+00, %16 ], [ %27, %18 ]
  %21 = phi double [ 0.000000e+00, %16 ], [ %29, %18 ]
  %22 = phi i32 [ %17, %16 ], [ %33, %18 ]
  %23 = fdiv double %19, %20
  %24 = fadd double %21, %23
  %25 = fadd double %20, %19
  %26 = fptosi double %25 to i32
  %27 = sitofp i32 %26 to double
  %28 = fdiv double %27, %19
  %29 = fadd double %24, %28
  %30 = fadd double %19, %27
  %31 = fptosi double %30 to i32
  %32 = sitofp i32 %31 to double
  %33 = add i32 %22, -2
  %34 = icmp eq i32 %33, 0
  br i1 %34, label %35, label %18, !llvm.loop !9

35:                                               ; preds = %18, %13
  %36 = phi double [ undef, %13 ], [ %29, %18 ]
  %37 = phi double [ 2.000000e+00, %13 ], [ %32, %18 ]
  %38 = phi double [ 1.000000e+00, %13 ], [ %27, %18 ]
  %39 = phi double [ 0.000000e+00, %13 ], [ %29, %18 ]
  %40 = icmp eq i32 %14, 0
  br i1 %40, label %44, label %41

41:                                               ; preds = %35
  %42 = fdiv double %37, %38
  %43 = fadd double %39, %42
  br label %44

44:                                               ; preds = %41, %35, %8
  %45 = phi double [ 0.000000e+00, %8 ], [ %36, %35 ], [ %43, %41 ]
  %46 = call i32 (i8*, ...) @printf(i8* nonnull dereferenceable(1) getelementptr inbounds ([7 x i8], [7 x i8]* @.str.1, i64 0, i64 0), double %45)
  %47 = add nuw nsw i32 %9, 1
  %48 = load i32, i32* %1, align 4, !tbaa !5
  %49 = icmp slt i32 %9, %48
  br i1 %49, label %8, label %50, !llvm.loop !11

50:                                               ; preds = %44, %0
  call void @llvm.lifetime.end.p0i8(i64 4, i8* nonnull %4) #3
  call void @llvm.lifetime.end.p0i8(i64 4, i8* nonnull %3) #3
  ret i32 0
}

; Function Attrs: argmemonly mustprogress nofree nosync nounwind willreturn
declare void @llvm.lifetime.start.p0i8(i64 immarg, i8* nocapture) #1

; Function Attrs: nofree nounwind
declare noundef i32 @__isoc99_scanf(i8* nocapture noundef readonly, ...) local_unnamed_addr #2

; Function Attrs: nofree nounwind
declare noundef i32 @printf(i8* nocapture noundef readonly, ...) local_unnamed_addr #2

; Function Attrs: argmemonly mustprogress nofree nosync nounwind willreturn
declare void @llvm.lifetime.end.p0i8(i64 immarg, i8* nocapture) #1


!llvm.module.flags = !{!0, !1, !2, !3}
!llvm.ident = !{!4}

!0 = !{i32 1, !"wchar_size", i32 4}
!1 = !{i32 7, !"PIC Level", i32 2}
!2 = !{i32 7, !"PIE Level", i32 2}
!3 = !{i32 7, !"uwtable", i32 1}
!4 = !{!"clang version 13.0.0"}
!5 = !{!6, !6, i64 0}
!6 = !{!"int", !7, i64 0}
!7 = !{!"omnipotent char", !8, i64 0}
!8 = !{!"Simple C/C++ TBAA"}
!9 = distinct !{!9, !10}
!10 = !{!"llvm.loop.mustprogress"}
!11 = distinct !{!11, !10}
